; ModuleID = '45/970.c'
source_filename = "45/970.c"
target datalayout = "e-m:e-p270:32:32-p271:32:32-p272:64:64-i64:64-f80:128-n8:16:32:64-S128"
target triple = "x86_64-pc-linux-gnu"

@.str = private unnamed_addr constant [4 x i8] c"%d\0A\00", align 1

; Function Attrs: noinline nounwind uwtable
define dso_local i32 @main() #0 {
  %1 = alloca i32, align 4
  %2 = alloca [101 x i8], align 16
  %3 = alloca [20 x [3 x i8]], align 16
  %4 = alloca i32, align 4
  %5 = alloca i32, align 4
  %6 = alloca i32, align 4
  %7 = alloca i32, align 4
  %8 = alloca i32, align 4
  store i32 0, i32* %1, align 4
  %9 = getelementptr inbounds [101 x i8], [101 x i8]* %2, i64 0, i64 0
  %10 = call i32 (i8*, ...) bitcast (i32 (...)* @gets to i32 (i8*, ...)*)(i8* %9)
  store i32 0, i32* %5, align 4
  store i32 0, i32* %6, align 4
  store i32 0, i32* %4, align 4
  br label %11

11:                                               ; preds = %43, %0
  %12 = load i32, i32* %4, align 4
  %13 = sext i32 %12 to i64
  %14 = getelementptr inbounds [101 x i8], [101 x i8]* %2, i64 0, i64 %13
  %15 = load i8, i8* %14, align 1
  %16 = sext i8 %15 to i32
  %17 = icmp ne i32 %16, 0
  br i1 %17, label %18, label %46

18:                                               ; preds = %11
  %19 = load i32, i32* %4, align 4
  %20 = sext i32 %19 to i64
  %21 = getelementptr inbounds [101 x i8], [101 x i8]* %2, i64 0, i64 %20
  %22 = load i8, i8* %21, align 1
  %23 = sext i8 %22 to i32
  %24 = icmp eq i32 %23, 32
  br i1 %24, label %25, label %42

25:                                               ; preds = %18
  %26 = load i32, i32* %4, align 4
  %27 = sext i32 %26 to i64
  %28 = getelementptr inbounds [101 x i8], [101 x i8]* %2, i64 0, i64 %27
  store i8 0, i8* %28, align 1
  %29 = load i32, i32* %5, align 4
  %30 = sext i32 %29 to i64
  %31 = getelementptr inbounds [20 x [3 x i8]], [20 x [3 x i8]]* %3, i64 0, i64 %30
  %32 = getelementptr inbounds [3 x i8], [3 x i8]* %31, i64 0, i64 0
  %33 = getelementptr inbounds [101 x i8], [101 x i8]* %2, i64 0, i64 0
  %34 = load i32, i32* %6, align 4
  %35 = sext i32 %34 to i64
  %36 = getelementptr inbounds i8, i8* %33, i64 %35
  %37 = call i8* @strcpy(i8* %32, i8* %36) #4
  %38 = load i32, i32* %4, align 4
  %39 = add nsw i32 %38, 1
  store i32 %39, i32* %6, align 4
  %40 = load i32, i32* %5, align 4
  %41 = add nsw i32 %40, 1
  store i32 %41, i32* %5, align 4
  br label %42

42:                                               ; preds = %25, %18
  br label %43

43:                                               ; preds = %42
  %44 = load i32, i32* %4, align 4
  %45 = add nsw i32 %44, 1
  store i32 %45, i32* %4, align 4
  br label %11

46:                                               ; preds = %11
  %47 = load i32, i32* %5, align 4
  %48 = sext i32 %47 to i64
  %49 = getelementptr inbounds [20 x [3 x i8]], [20 x [3 x i8]]* %3, i64 0, i64 %48
  %50 = getelementptr inbounds [3 x i8], [3 x i8]* %49, i64 0, i64 0
  %51 = getelementptr inbounds [101 x i8], [101 x i8]* %2, i64 0, i64 0
  %52 = load i32, i32* %6, align 4
  %53 = sext i32 %52 to i64
  %54 = getelementptr inbounds i8, i8* %51, i64 %53
  %55 = call i8* @strcpy(i8* %50, i8* %54) #4
  %56 = load i32, i32* %5, align 4
  %57 = add nsw i32 %56, 1
  store i32 %57, i32* %5, align 4
  %58 = getelementptr inbounds [20 x [3 x i8]], [20 x [3 x i8]]* %3, i64 0, i64 0
  %59 = getelementptr inbounds [3 x i8], [3 x i8]* %58, i64 0, i64 0
  %60 = call i64 @strlen(i8* %59) #5
  %61 = trunc i64 %60 to i32
  store i32 %61, i32* %7, align 4
  %62 = getelementptr inbounds [20 x [3 x i8]], [20 x [3 x i8]]* %3, i64 0, i64 1
  %63 = getelementptr inbounds [3 x i8], [3 x i8]* %62, i64 0, i64 0
  %64 = call i64 @strlen(i8* %63) #5
  %65 = trunc i64 %64 to i32
  store i32 %65, i32* %8, align 4
  store i32 0, i32* %4, align 4
  br label %66

66:                                               ; preds = %86, %46
  %67 = load i32, i32* %4, align 4
  %68 = load i32, i32* %8, align 4
  %69 = icmp slt i32 %67, %68
  br i1 %69, label %70, label %89

70:                                               ; preds = %66
  %71 = getelementptr inbounds [20 x [3 x i8]], [20 x [3 x i8]]* %3, i64 0, i64 1
  %72 = load i32, i32* %4, align 4
  %73 = sext i32 %72 to i64
  %74 = getelementptr inbounds [3 x i8], [3 x i8]* %71, i64 0, i64 %73
  %75 = load i8, i8* %74, align 1
  %76 = sext i8 %75 to i32
  %77 = getelementptr inbounds [20 x [3 x i8]], [20 x [3 x i8]]* %3, i64 0, i64 0
  %78 = getelementptr inbounds [3 x i8], [3 x i8]* %77, i64 0, i64 0
  %79 = load i8, i8* %78, align 16
  %80 = sext i8 %79 to i32
  %81 = icmp eq i32 %76, %80
  br i1 %81, label %82, label %85

82:                                               ; preds = %70
  %83 = load i32, i32* %4, align 4
  %84 = call i32 (i8*, ...) @printf(i8* getelementptr inbounds ([4 x i8], [4 x i8]* @.str, i64 0, i64 0), i32 %83)
  br label %89

85:                                               ; preds = %70
  br label %86

86:                                               ; preds = %85
  %87 = load i32, i32* %4, align 4
  %88 = add nsw i32 %87, 1
  store i32 %88, i32* %4, align 4
  br label %66

89:                                               ; preds = %82, %66
  ret i32 0
}

declare dso_local i32 @gets(...) #1

; Function Attrs: nounwind
declare dso_local i8* @strcpy(i8*, i8*) #2

; Function Attrs: nounwind readonly
declare dso_local i64 @strlen(i8*) #3

declare dso_local i32 @printf(i8*, ...) #1


!llvm.module.flags = !{!0}
!llvm.ident = !{!1}

!0 = !{i32 1, !"wchar_size", i32 4}
!1 = !{!"clang version 10.0.0-4ubuntu1 "}
