; ModuleID = 'source-C-CXX/44/970.c'
source_filename = "source-C-CXX/44/970.c"
target datalayout = "e-m:e-p270:32:32-p271:32:32-p272:64:64-i64:64-f80:128-n8:16:32:64-S128"
target triple = "x86_64-pc-linux-gnu"

@.str = private unnamed_addr constant [4 x i8] c"%d\0A\00", align 1

; Function Attrs: nounwind sspstrong uwtable
define dso_local i32 @main() local_unnamed_addr #0 {
  %1 = alloca [101 x i8], align 16
  %2 = alloca [20 x [3 x i8]], align 16
  %3 = getelementptr inbounds [101 x i8], [101 x i8]* %1, i64 0, i64 0
  call void @llvm.lifetime.start.p0i8(i64 101, i8* nonnull %3) #6
  %4 = getelementptr inbounds [20 x [3 x i8]], [20 x [3 x i8]]* %2, i64 0, i64 0, i64 0
  call void @llvm.lifetime.start.p0i8(i64 60, i8* nonnull %4) #6
  %5 = call i32 (i8*, ...) bitcast (i32 (...)* @gets to i32 (i8*, ...)*)(i8* nonnull %3) #6
  br label %6

6:                                                ; preds = %16, %0
  %7 = phi i64 [ %22, %16 ], [ 0, %0 ]
  %8 = phi i64 [ %25, %16 ], [ 0, %0 ]
  %9 = phi i32 [ %23, %16 ], [ 0, %0 ]
  br label %10

10:                                               ; preds = %6, %14
  %11 = phi i64 [ %15, %14 ], [ %7, %6 ]
  %12 = getelementptr inbounds [101 x i8], [101 x i8]* %1, i64 0, i64 %11
  %13 = load i8, i8* %12, align 1, !tbaa !5
  switch i8 %13, label %14 [
    i8 0, label %26
    i8 32, label %16
  ]

14:                                               ; preds = %10
  %15 = add nuw i64 %11, 1
  br label %10, !llvm.loop !8

16:                                               ; preds = %10
  %17 = getelementptr inbounds [101 x i8], [101 x i8]* %1, i64 0, i64 %11
  store i8 0, i8* %17, align 1, !tbaa !5
  %18 = zext i32 %9 to i64
  %19 = getelementptr inbounds [20 x [3 x i8]], [20 x [3 x i8]]* %2, i64 0, i64 %18, i64 0
  %20 = getelementptr inbounds [101 x i8], [101 x i8]* %1, i64 0, i64 %8
  %21 = call i8* @strcpy(i8* noundef nonnull %19, i8* noundef nonnull %20) #6
  %22 = add nuw i64 %11, 1
  %23 = add nuw nsw i32 %9, 1
  %24 = shl i64 %22, 32
  %25 = ashr exact i64 %24, 32
  br label %6, !llvm.loop !8

26:                                               ; preds = %10
  %27 = zext i32 %9 to i64
  %28 = getelementptr inbounds [20 x [3 x i8]], [20 x [3 x i8]]* %2, i64 0, i64 %27, i64 0
  %29 = getelementptr inbounds [101 x i8], [101 x i8]* %1, i64 0, i64 %8
  %30 = call i8* @strcpy(i8* noundef nonnull %28, i8* noundef nonnull %29) #6
  %31 = getelementptr inbounds [20 x [3 x i8]], [20 x [3 x i8]]* %2, i64 0, i64 1, i64 0
  %32 = call i64 @strlen(i8* noundef nonnull %31) #7
  %33 = trunc i64 %32 to i32
  %34 = load i8, i8* %4, align 16
  %35 = icmp sgt i32 %33, 0
  br i1 %35, label %36, label %49

36:                                               ; preds = %26
  %37 = and i64 %32, 4294967295
  br label %38

38:                                               ; preds = %36, %46
  %39 = phi i64 [ 0, %36 ], [ %47, %46 ]
  %40 = getelementptr inbounds [20 x [3 x i8]], [20 x [3 x i8]]* %2, i64 0, i64 1, i64 %39
  %41 = load i8, i8* %40, align 1, !tbaa !5
  %42 = icmp eq i8 %41, %34
  br i1 %42, label %43, label %46

43:                                               ; preds = %38
  %44 = trunc i64 %39 to i32
  %45 = call i32 (i8*, ...) @printf(i8* nonnull dereferenceable(1) getelementptr inbounds ([4 x i8], [4 x i8]* @.str, i64 0, i64 0), i32 %44)
  br label %49

46:                                               ; preds = %38
  %47 = add nuw nsw i64 %39, 1
  %48 = icmp eq i64 %47, %37
  br i1 %48, label %49, label %38, !llvm.loop !10

49:                                               ; preds = %46, %26, %43
  call void @llvm.lifetime.end.p0i8(i64 60, i8* nonnull %4) #6
  call void @llvm.lifetime.end.p0i8(i64 101, i8* nonnull %3) #6
  ret i32 0
}

; Function Attrs: argmemonly mustprogress nofree nosync nounwind willreturn
declare void @llvm.lifetime.start.p0i8(i64 immarg, i8* nocapture) #1

declare i32 @gets(...) local_unnamed_addr #2

; Function Attrs: argmemonly mustprogress nofree nounwind willreturn
declare i8* @strcpy(i8* noalias returned writeonly, i8* noalias nocapture readonly) local_unnamed_addr #3

; Function Attrs: argmemonly mustprogress nofree nounwind readonly willreturn
declare i64 @strlen(i8* nocapture) local_unnamed_addr #4

; Function Attrs: nofree nounwind
declare noundef i32 @printf(i8* nocapture noundef readonly, ...) local_unnamed_addr #5

; Function Attrs: argmemonly mustprogress nofree nosync nounwind willreturn
declare void @llvm.lifetime.end.p0i8(i64 immarg, i8* nocapture) #1


!llvm.module.flags = !{!0, !1, !2, !3}
!llvm.ident = !{!4}

!0 = !{i32 1, !"wchar_size", i32 4}
!1 = !{i32 7, !"PIC Level", i32 2}
!2 = !{i32 7, !"PIE Level", i32 2}
!3 = !{i32 7, !"uwtable", i32 1}
!4 = !{!"clang version 13.0.0"}
!5 = !{!6, !6, i64 0}
!6 = !{!"omnipotent char", !7, i64 0}
!7 = !{!"Simple C/C++ TBAA"}
!8 = distinct !{!8, !9}
!9 = !{!"llvm.loop.mustprogress"}
!10 = distinct !{!10, !9}
